target datalayout = "e-m:e-p270:32:32-p271:32:32-p272:64:64-i64:64-i128:128-f80:128-n8:16:32:64-S128"
target triple = "x86_64-pc-linux-gnu"

%"class.pybind11::object" = type { %"class.pybind11::handle" }
%"class.pybind11::handle" = type { ptr }
%"class.pybind11::capsule" = type { %"class.pybind11::object" }
%"struct.pybind11::detail::void_type" = type { i8 }
%class.anon.905 = type { i8 }
%class.anon.910 = type { i8 }

@_ZTIN8pybind1117error_already_setE = linkonce_odr hidden constant { ptr, ptr, ptr } { ptr getelementptr inbounds (ptr, ptr @_ZTVN10__cxxabiv120__si_class_type_infoE, i64 2), ptr @_ZTSN8pybind1117error_already_setE, ptr @_ZTISt9exception }, comdat, align 8
@.str.304 = private unnamed_addr constant [17 x i8] c"creating capsule\00", align 1
@"_ZZZ22test_submodule_pytypesRN8pybind117module_EENK4$_59clEvE12capsule_name" = internal global ptr @.str.306, align 8
@.str.307 = private unnamed_addr constant [17 x i8] c"renaming capsule\00", align 1

; Function Attrs: mustprogress nounwind uwtable
define linkonce_odr hidden void @_ZN8pybind116handleC2Ev(ptr noundef nonnull align 8 dereferenceable(8) %0) unnamed_addr #0 comdat align 2 {
  %2 = alloca ptr, align 8
  store ptr %0, ptr %2, align 8
  %3 = load ptr, ptr %2, align 8
  %4 = getelementptr inbounds %"class.pybind11::handle", ptr %3, i32 0, i32 0
  store ptr null, ptr %4, align 8
  ret void
}

; Function Attrs: mustprogress nounwind uwtable
define linkonce_odr hidden noundef ptr @_ZZN8pybind117capsuleC1EPFvvEENKUlP7_objectE_cvPFvS4_EEv(ptr noundef nonnull align 1 dereferenceable(1) %0) #0 comdat align 2 {
  %2 = alloca ptr, align 8
  store ptr %0, ptr %2, align 8
  ret ptr @_ZZN8pybind117capsuleC1EPFvvEENUlP7_objectE_8__invokeES4_
}

; Function Attrs: mustprogress nounwind uwtable
define linkonce_odr hidden void @_ZN8pybind116objectC2Ev(ptr noundef nonnull align 8 dereferenceable(8) %0) unnamed_addr #0 comdat align 2 {
  %2 = alloca ptr, align 8
  store ptr %0, ptr %2, align 8
  %3 = load ptr, ptr %2, align 8
  call void @_ZN8pybind116handleC2Ev(ptr noundef nonnull align 8 dereferenceable(8) %3) #16
  ret void
}

; Function Attrs: mustprogress uwtable
define linkonce_odr hidden void @_ZN8pybind117capsule8set_nameEPKc(ptr noundef nonnull align 8 dereferenceable(8) %0, ptr noundef %1) #1 comdat align 2 personality ptr @__gxx_personality_v0 {
  %3 = alloca ptr, align 8
  %4 = alloca ptr, align 8
  %5 = alloca ptr, align 8
  %6 = alloca i32, align 4
  store ptr %0, ptr %3, align 8
  store ptr %1, ptr %4, align 8
  %7 = load ptr, ptr %3, align 8
  %8 = getelementptr inbounds %"class.pybind11::handle", ptr %7, i32 0, i32 0
  %9 = load ptr, ptr %8, align 8
  %10 = load ptr, ptr %4, align 8
  %11 = call i32 @PyCapsule_SetName(ptr noundef %9, ptr noundef %10)
  %12 = icmp ne i32 %11, 0
  br i1 %12, label %13, label %20

13:                                               ; preds = %2
  %14 = call ptr @__cxa_allocate_exception(i64 24) #16
  invoke void @_ZN8pybind1117error_already_setC2Ev(ptr noundef nonnull align 8 dereferenceable(24) %14)
          to label %15 unwind label %16

15:                                               ; preds = %13
  call void @__cxa_throw(ptr %14, ptr @_ZTIN8pybind1117error_already_setE, ptr @_ZN8pybind1117error_already_setD2Ev) #21
  unreachable

16:                                               ; preds = %13
  %17 = landingpad { ptr, i32 }
          cleanup
  %18 = extractvalue { ptr, i32 } %17, 0
  store ptr %18, ptr %5, align 8
  %19 = extractvalue { ptr, i32 } %17, 1
  store i32 %19, ptr %6, align 4
  call void @__cxa_free_exception(ptr %14) #16
  br label %21

20:                                               ; preds = %2
  ret void

21:                                               ; preds = %16
  %22 = load ptr, ptr %5, align 8
  %23 = load i32, ptr %6, align 4
  %24 = insertvalue { ptr, i32 } poison, ptr %22, 0
  %25 = insertvalue { ptr, i32 } %24, i32 %23, 1
  resume { ptr, i32 } %25
}

; Function Attrs: mustprogress uwtable
define linkonce_odr hidden void @_ZN8pybind117capsuleC2EPFvvE(ptr noundef nonnull align 8 dereferenceable(8) %0, ptr noundef %1) unnamed_addr #1 comdat align 2 personality ptr @__gxx_personality_v0 {
  %3 = alloca ptr, align 8
  %4 = alloca ptr, align 8
  %5 = alloca %class.anon.905, align 1
  %6 = alloca ptr, align 8
  %7 = alloca i32, align 4
  store ptr %0, ptr %3, align 8
  store ptr %1, ptr %4, align 8
  %8 = load ptr, ptr %3, align 8
  call void @_ZN8pybind116objectC2Ev(ptr noundef nonnull align 8 dereferenceable(8) %8) #16
  %9 = load ptr, ptr %4, align 8
  %10 = call noundef ptr @_ZZN8pybind117capsuleC1EPFvvEENKUlP7_objectE_cvPFvS4_EEv(ptr noundef nonnull align 1 dereferenceable(1) %5) #16
  %11 = invoke ptr @PyCapsule_New(ptr noundef %9, ptr noundef null, ptr noundef %10)
          to label %12 unwind label %20

12:                                               ; preds = %2
  %13 = getelementptr inbounds %"class.pybind11::handle", ptr %8, i32 0, i32 0
  store ptr %11, ptr %13, align 8
  %14 = getelementptr inbounds %"class.pybind11::handle", ptr %8, i32 0, i32 0
  %15 = load ptr, ptr %14, align 8
  %16 = icmp ne ptr %15, null
  br i1 %16, label %28, label %17

17:                                               ; preds = %12
  %18 = call ptr @__cxa_allocate_exception(i64 24) #16
  invoke void @_ZN8pybind1117error_already_setC2Ev(ptr noundef nonnull align 8 dereferenceable(24) %18)
          to label %19 unwind label %24

19:                                               ; preds = %17
  invoke void @__cxa_throw(ptr %18, ptr @_ZTIN8pybind1117error_already_setE, ptr @_ZN8pybind1117error_already_setD2Ev) #21
          to label %35 unwind label %20

20:                                               ; preds = %19, %2
  %21 = landingpad { ptr, i32 }
          cleanup
  %22 = extractvalue { ptr, i32 } %21, 0
  store ptr %22, ptr %6, align 8
  %23 = extractvalue { ptr, i32 } %21, 1
  store i32 %23, ptr %7, align 4
  br label %29

24:                                               ; preds = %17
  %25 = landingpad { ptr, i32 }
          cleanup
  %26 = extractvalue { ptr, i32 } %25, 0
  store ptr %26, ptr %6, align 8
  %27 = extractvalue { ptr, i32 } %25, 1
  store i32 %27, ptr %7, align 4
  call void @__cxa_free_exception(ptr %18) #16
  br label %29

28:                                               ; preds = %12
  ret void

29:                                               ; preds = %24, %20
  call void @_ZN8pybind116objectD2Ev(ptr noundef nonnull align 8 dereferenceable(8) %8) #16
  br label %30

30:                                               ; preds = %29
  %31 = load ptr, ptr %6, align 8
  %32 = load i32, ptr %7, align 4
  %33 = insertvalue { ptr, i32 } poison, ptr %31, 0
  %34 = insertvalue { ptr, i32 } %33, i32 %32, 1
  resume { ptr, i32 } %34

35:                                               ; preds = %19
  unreachable
}

; Function Attrs: mustprogress nounwind uwtable
define internal noundef ptr @"_ZZZ22test_submodule_pytypesRN8pybind117module_EENK4$_59clEvENKUlvE_cvPFvvEEv"(ptr noundef nonnull align 1 dereferenceable(1) %0) #0 align 2 {
  %2 = alloca ptr, align 8
  store ptr %0, ptr %2, align 8
  ret ptr @"_ZZZ22test_submodule_pytypesRN8pybind117module_EENK4$_59clEvENUlvE_8__invokeEv"
}

; Function Attrs: mustprogress uwtable
define internal void @"_ZZ22test_submodule_pytypesRN8pybind117module_EENK4$_59clEv"(ptr dead_on_unwind noalias writable sret(%"class.pybind11::capsule") align 8 %0, ptr noundef nonnull align 1 dereferenceable(1) %1) #1 align 2 personality ptr @__gxx_personality_v0 {
  %3 = alloca ptr, align 8
  %4 = alloca ptr, align 8
  %5 = alloca i1, align 1
  %6 = alloca %class.anon.910, align 1
  %7 = alloca ptr, align 8
  %8 = alloca i32, align 4
  store ptr %0, ptr %3, align 8
  store ptr %1, ptr %4, align 8
  call void @_ZN8pybind115printILNS_19return_value_policyE1EJRA17_KcEEEvDpOT0_(ptr noundef nonnull align 1 dereferenceable(17) @.str.304)
  store i1 false, ptr %5, align 1
  %9 = call noundef ptr @"_ZZZ22test_submodule_pytypesRN8pybind117module_EENK4$_59clEvENKUlvE_cvPFvvEEv"(ptr noundef nonnull align 1 dereferenceable(1) %6) #16
  call void @_ZN8pybind117capsuleC2EPFvvE(ptr noundef nonnull align 8 dereferenceable(8) %0, ptr noundef %9)
  invoke void @_ZN8pybind115printILNS_19return_value_policyE1EJRA17_KcEEEvDpOT0_(ptr noundef nonnull align 1 dereferenceable(17) @.str.307)
          to label %10 unwind label %14

10:                                               ; preds = %2
  %11 = load ptr, ptr @"_ZZZ22test_submodule_pytypesRN8pybind117module_EENK4$_59clEvE12capsule_name", align 8
  invoke void @_ZN8pybind117capsule8set_nameEPKc(ptr noundef nonnull align 8 dereferenceable(8) %0, ptr noundef %11)
          to label %12 unwind label %14

12:                                               ; preds = %10
  store i1 true, ptr %5, align 1
  %13 = load i1, ptr %5, align 1
  br i1 %13, label %19, label %18

14:                                               ; preds = %10, %2
  %15 = landingpad { ptr, i32 }
          cleanup
  %16 = extractvalue { ptr, i32 } %15, 0
  store ptr %16, ptr %7, align 8
  %17 = extractvalue { ptr, i32 } %15, 1
  store i32 %17, ptr %8, align 4
  call void @_ZN8pybind117capsuleD2Ev(ptr noundef nonnull align 8 dereferenceable(8) %0) #16
  br label %20

18:                                               ; preds = %12
  call void @_ZN8pybind117capsuleD2Ev(ptr noundef nonnull align 8 dereferenceable(8) %0) #16
  br label %19

19:                                               ; preds = %18, %12
  ret void

20:                                               ; preds = %14
  %21 = load ptr, ptr %7, align 8
  %22 = load i32, ptr %8, align 4
  %23 = insertvalue { ptr, i32 } poison, ptr %21, 0
  %24 = insertvalue { ptr, i32 } %23, i32 %22, 1
  resume { ptr, i32 } %24
}

; Function Attrs: mustprogress uwtable
define internal void @"_ZNO8pybind116detail15argument_loaderIJEE9call_implINS_7capsuleERZ22test_submodule_pytypesRNS_7module_EE4$_59TpTnmJENS0_9void_typeEEET_OT0_St16integer_sequenceImJXspT1_EEEOT2_"(ptr dead_on_unwind noalias writable sret(%"class.pybind11::capsule") align 8 %0, ptr noundef nonnull align 1 dereferenceable(1) %1, ptr noundef nonnull align 1 dereferenceable(1) %2, ptr noundef nonnull align 1 dereferenceable(1) %3) #1 align 2 {
  %5 = alloca ptr, align 8
  %6 = alloca ptr, align 8
  %7 = alloca ptr, align 8
  %8 = alloca ptr, align 8
  store ptr %0, ptr %5, align 8
  store ptr %1, ptr %6, align 8
  store ptr %2, ptr %7, align 8
  store ptr %3, ptr %8, align 8
  %9 = load ptr, ptr %7, align 8
  call void @"_ZZ22test_submodule_pytypesRN8pybind117module_EENK4$_59clEv"(ptr dead_on_unwind writable sret(%"class.pybind11::capsule") align 8 %0, ptr noundef nonnull align 1 dereferenceable(1) %9)
  ret void
}

; Function Attrs: mustprogress uwtable
define internal void @"_ZNO8pybind116detail15argument_loaderIJEE4callINS_7capsuleENS0_9void_typeERZ22test_submodule_pytypesRNS_7module_EE4$_59EENSt9enable_ifIXntsr3std7is_voidIT_EE5valueESB_E4typeEOT1_"(ptr dead_on_unwind noalias writable sret(%"class.pybind11::capsule") align 8 %0, ptr noundef nonnull align 1 dereferenceable(1) %1, ptr noundef nonnull align 1 dereferenceable(1) %2) #1 align 2 {
  %4 = alloca ptr, align 8
  %5 = alloca ptr, align 8
  %6 = alloca ptr, align 8
  %7 = alloca %"struct.pybind11::detail::void_type", align 1
  store ptr %0, ptr %4, align 8
  store ptr %1, ptr %5, align 8
  store ptr %2, ptr %6, align 8
  %8 = load ptr, ptr %5, align 8
  %9 = load ptr, ptr %6, align 8
  call void @"_ZNO8pybind116detail15argument_loaderIJEE9call_implINS_7capsuleERZ22test_submodule_pytypesRNS_7module_EE4$_59TpTnmJENS0_9void_typeEEET_OT0_St16integer_sequenceImJXspT1_EEEOT2_"(ptr dead_on_unwind writable sret(%"class.pybind11::capsule") align 8 %0, ptr noundef nonnull align 1 dereferenceable(1) %8, ptr noundef nonnull align 1 dereferenceable(1) %9, ptr noundef nonnull align 1 dereferenceable(1) %7)
  ret void
}