; Function Attrs: mustprogress uwtable
define internal fastcc void @"_ZNO8pybind116detail15argument_loaderIJEE4callINS_7capsuleENS0_9void_typeERZ22test_submodule_pytypesRNS_7module_EE4$_59EENSt9enable_ifIXntsr3std7is_voidIT_EE5valueESB_E4typeEOT1_"(ptr dead_on_unwind noalias writable align 8 %0) unnamed_addr #1 align 2 personality ptr @__gxx_personality_v0 {
  tail call void @llvm.experimental.noalias.scope.decl(metadata !3203)
  tail call void @llvm.experimental.noalias.scope.decl(metadata !3206)
  tail call void @_ZN8pybind115printILNS_19return_value_policyE1EJRA17_KcEEEvDpOT0_(ptr noundef nonnull align 1 dereferenceable(17) @.str.304), !noalias !3209
  store ptr null, ptr %0, align 8, !alias.scope !3209
  %2 = invoke ptr @PyCapsule_New(ptr noundef nonnull @"_ZZZ22test_submodule_pytypesRN8pybind117module_EENK4$_59clEvENUlvE_8__invokeEv", ptr noundef null, ptr noundef nonnull @_ZZN8pybind117capsuleC1EPFvvEENUlP7_objectE_8__invokeES4_)
          to label %3 unwind label %7, !noalias !3209

3:                                                ; preds = %1
  store ptr %2, ptr %0, align 8, !alias.scope !3209
  %.not.i.i.i = icmp eq ptr %2, null
  br i1 %.not.i.i.i, label %4, label %_ZN8pybind117capsuleC2EPFvvE.exit.i.i

4:                                                ; preds = %3
  %5 = tail call ptr @__cxa_allocate_exception(i64 24) #25, !noalias !3209
  invoke void @_ZN8pybind1117error_already_setC2Ev(ptr noundef nonnull align 8 dereferenceable(24) %5)
          to label %6 unwind label %9, !noalias !3209

6:                                                ; preds = %4
  invoke void @__cxa_throw(ptr nonnull %5, ptr nonnull @_ZTIN8pybind1117error_already_setE, ptr nonnull @_ZN8pybind1117error_already_setD2Ev) #30
          to label %12 unwind label %7, !noalias !3209

7:                                                ; preds = %6, %1
  %8 = landingpad { ptr, i32 }
          cleanup
  br label %11

9:                                                ; preds = %4
  %10 = landingpad { ptr, i32 }
          cleanup
  tail call void @__cxa_free_exception(ptr %5) #25, !noalias !3209
  br label %11

common.resume.i.i:                                ; preds = %.body.i.i, %11
  %common.resume.op.i.i = phi { ptr, i32 } [ %.pn.i.i.i, %11 ], [ %eh.lpad-body.i.i, %.body.i.i ]
  resume { ptr, i32 } %common.resume.op.i.i

11:                                               ; preds = %9, %7
  %.pn.i.i.i = phi { ptr, i32 } [ %8, %7 ], [ %10, %9 ]
  tail call void @_ZN8pybind116objectD2Ev(ptr noundef nonnull align 8 dereferenceable(8) %0) #25
  br label %common.resume.i.i

12:                                               ; preds = %6
  unreachable

_ZN8pybind117capsuleC2EPFvvE.exit.i.i:            ; preds = %3
  invoke void @_ZN8pybind115printILNS_19return_value_policyE1EJRA17_KcEEEvDpOT0_(ptr noundef nonnull align 1 dereferenceable(17) @.str.307)
          to label %13 unwind label %20, !noalias !3209

13:                                               ; preds = %_ZN8pybind117capsuleC2EPFvvE.exit.i.i
  %14 = invoke i32 @PyCapsule_SetName(ptr noundef nonnull %2, ptr noundef nonnull @.str.306)
          to label %.noexc.i.i unwind label %20, !noalias !3209

.noexc.i.i:                                       ; preds = %13
  %.not.i2.i.i = icmp eq i32 %14, 0
  br i1 %.not.i2.i.i, label %"_ZNO8pybind116detail15argument_loaderIJEE9call_implINS_7capsuleERZ22test_submodule_pytypesRNS_7module_EE4$_59TpTnmJENS0_9void_typeEEET_OT0_St16integer_sequenceImJXspT1_EEEOT2_.exit", label %15

15:                                               ; preds = %.noexc.i.i
  %16 = tail call ptr @__cxa_allocate_exception(i64 24) #25, !noalias !3209
  invoke void @_ZN8pybind1117error_already_setC2Ev(ptr noundef nonnull align 8 dereferenceable(24) %16)
          to label %17 unwind label %18, !noalias !3209

17:                                               ; preds = %15
  invoke void @__cxa_throw(ptr nonnull %16, ptr nonnull @_ZTIN8pybind1117error_already_setE, ptr nonnull @_ZN8pybind1117error_already_setD2Ev) #30
          to label %.noexc3.i.i unwind label %20, !noalias !3209

.noexc3.i.i:                                      ; preds = %17
  unreachable

18:                                               ; preds = %15
  %19 = landingpad { ptr, i32 }
          cleanup
  tail call void @__cxa_free_exception(ptr %16) #25, !noalias !3209
  br label %.body.i.i

20:                                               ; preds = %17, %13, %_ZN8pybind117capsuleC2EPFvvE.exit.i.i
  %21 = landingpad { ptr, i32 }
          cleanup
  br label %.body.i.i

.body.i.i:                                        ; preds = %20, %18
  %eh.lpad-body.i.i = phi { ptr, i32 } [ %21, %20 ], [ %19, %18 ]
  tail call void @_ZN8pybind117capsuleD2Ev(ptr noundef nonnull align 8 dereferenceable(8) %0) #25
  br label %common.resume.i.i

"_ZNO8pybind116detail15argument_loaderIJEE9call_implINS_7capsuleERZ22test_submodule_pytypesRNS_7module_EE4$_59TpTnmJENS0_9void_typeEEET_OT0_St16integer_sequenceImJXspT1_EEEOT2_.exit": ; preds = %.noexc.i.i
  ret void
}